target datalayout = "e-m:e-p270:32:32-p271:32:32-p272:64:64-i64:64-i128:128-f80:128-n8:16:32:64-S128"
target triple = "x86_64-pc-linux-gnu"

%struct.AVFilterPad = type { ptr, i32, i32, %union.anon, ptr, ptr, ptr }
%union.anon = type { ptr }
%struct.AVFilterContext = type { ptr, ptr, ptr, ptr, ptr, i32, ptr, ptr, i32, ptr, ptr, i32, i32, ptr, ptr, ptr, ptr, i32, ptr, i32, i32 }
%struct.AVFilter = type { ptr, ptr, ptr, ptr, ptr, i32 }
%struct.StackContext = type { ptr, ptr, i32, ptr, i32, i32, i32, i32, i32, i32, [4 x i8], ptr, i32, %struct.FFDrawContext, %struct.FFDrawColor, ptr, ptr, %struct.FFFrameSync }
%struct.FFDrawContext = type { ptr, i32, i32, [4 x i32], [4 x i8], [4 x i8], i8, i8, i32, i32, i32, [3 x [3 x double]] }
%struct.FFDrawColor = type { [4 x i8], [4 x %union.anon.2] }
%union.anon.2 = type { [4 x i32] }
%struct.FFFrameSync = type { ptr, ptr, i32, %struct.AVRational, i64, ptr, ptr, i32, i32, i8, i8, ptr, i32, i32, i32, i32 }
%struct.AVRational = type { i32, i32 }

@.str = private unnamed_addr constant [7 x i8] c"hstack\00", align 1
@.str.2 = private unnamed_addr constant [7 x i8] c"vstack\00", align 1
@.str.4 = private unnamed_addr constant [7 x i8] c"xstack\00", align 1
@.str.26 = private unnamed_addr constant [5 x i8] c"none\00", align 1
@.str.27 = private unnamed_addr constant [59 x i8] c"Both layout and grid were specified. Only one is allowed.\0A\00", align 1
@.str.28 = private unnamed_addr constant [30 x i8] c"No layout or grid specified.\0A\00", align 1
@.str.29 = private unnamed_addr constant [8 x i8] c"input%d\00", align 1

; Function Attrs: cold nounwind optsize uwtable
define internal i32 @init(ptr noundef %0) #0 {
  %2 = alloca i32, align 4
  %3 = alloca ptr, align 8
  %4 = alloca ptr, align 8
  %5 = alloca i32, align 4
  %6 = alloca i32, align 4
  %7 = alloca i32, align 4
  %8 = alloca i32, align 4
  %9 = alloca %struct.AVFilterPad, align 8
  store ptr %0, ptr %3, align 8, !tbaa !4
  call void @llvm.lifetime.start.p0(i64 8, ptr %4) #11
  %10 = load ptr, ptr %3, align 8, !tbaa !4
  %11 = getelementptr inbounds nuw %struct.AVFilterContext, ptr %10, i32 0, i32 9
  %12 = load ptr, ptr %11, align 8, !tbaa !9
  store ptr %12, ptr %4, align 8, !tbaa !22
  call void @llvm.lifetime.start.p0(i64 4, ptr %5) #11
  call void @llvm.lifetime.start.p0(i64 4, ptr %6) #11
  %13 = load ptr, ptr %3, align 8, !tbaa !4
  %14 = getelementptr inbounds nuw %struct.AVFilterContext, ptr %13, i32 0, i32 1
  %15 = load ptr, ptr %14, align 8, !tbaa !24
  %16 = getelementptr inbounds nuw %struct.AVFilter, ptr %15, i32 0, i32 0
  %17 = load ptr, ptr %16, align 8, !tbaa !25
  %18 = call i32 @strcmp(ptr noundef %17, ptr noundef @.str.2) #12
  %19 = icmp ne i32 %18, 0
  br i1 %19, label %23, label %20

20:                                               ; preds = %1
  %21 = load ptr, ptr %4, align 8, !tbaa !22
  %22 = getelementptr inbounds nuw %struct.StackContext, ptr %21, i32 0, i32 5
  store i32 1, ptr %22, align 4, !tbaa !27
  br label %23

23:                                               ; preds = %20, %1
  %24 = load ptr, ptr %3, align 8, !tbaa !4
  %25 = getelementptr inbounds nuw %struct.AVFilterContext, ptr %24, i32 0, i32 1
  %26 = load ptr, ptr %25, align 8, !tbaa !24
  %27 = getelementptr inbounds nuw %struct.AVFilter, ptr %26, i32 0, i32 0
  %28 = load ptr, ptr %27, align 8, !tbaa !25
  %29 = call i32 @strcmp(ptr noundef %28, ptr noundef @.str) #12
  %30 = icmp ne i32 %29, 0
  br i1 %30, label %34, label %31

31:                                               ; preds = %23
  %32 = load ptr, ptr %4, align 8, !tbaa !22
  %33 = getelementptr inbounds nuw %struct.StackContext, ptr %32, i32 0, i32 6
  store i32 1, ptr %33, align 8, !tbaa !38
  br label %34

34:                                               ; preds = %31, %23
  %35 = load ptr, ptr %3, align 8, !tbaa !4
  %36 = getelementptr inbounds nuw %struct.AVFilterContext, ptr %35, i32 0, i32 1
  %37 = load ptr, ptr %36, align 8, !tbaa !24
  %38 = getelementptr inbounds nuw %struct.AVFilter, ptr %37, i32 0, i32 0
  %39 = load ptr, ptr %38, align 8, !tbaa !25
  %40 = call i32 @strcmp(ptr noundef %39, ptr noundef @.str.4) #12
  %41 = icmp ne i32 %40, 0
  br i1 %41, label %124, label %42

42:                                               ; preds = %34
  call void @llvm.lifetime.start.p0(i64 4, ptr %7) #11
  %43 = load ptr, ptr %4, align 8, !tbaa !22
  %44 = getelementptr inbounds nuw %struct.StackContext, ptr %43, i32 0, i32 11
  %45 = load ptr, ptr %44, align 8, !tbaa !39
  %46 = call i32 @strcmp(ptr noundef %45, ptr noundef @.str.26) #12
  %47 = icmp ne i32 %46, 0
  br i1 %47, label %48, label %61

48:                                               ; preds = %42
  %49 = load ptr, ptr %4, align 8, !tbaa !22
  %50 = getelementptr inbounds nuw %struct.StackContext, ptr %49, i32 0, i32 10
  %51 = getelementptr inbounds [4 x i8], ptr %50, i64 0, i64 0
  %52 = load ptr, ptr %4, align 8, !tbaa !22
  %53 = getelementptr inbounds nuw %struct.StackContext, ptr %52, i32 0, i32 11
  %54 = load ptr, ptr %53, align 8, !tbaa !39
  %55 = load ptr, ptr %3, align 8, !tbaa !4
  %56 = call i32 @av_parse_color(ptr noundef %51, ptr noundef %54, i32 noundef -1, ptr noundef %55)
  %57 = icmp sge i32 %56, 0
  br i1 %57, label %58, label %61

58:                                               ; preds = %48
  %59 = load ptr, ptr %4, align 8, !tbaa !22
  %60 = getelementptr inbounds nuw %struct.StackContext, ptr %59, i32 0, i32 12
  store i32 1, ptr %60, align 8, !tbaa !40
  br label %64

61:                                               ; preds = %48, %42
  %62 = load ptr, ptr %4, align 8, !tbaa !22
  %63 = getelementptr inbounds nuw %struct.StackContext, ptr %62, i32 0, i32 12
  store i32 0, ptr %63, align 8, !tbaa !40
  br label %64

64:                                               ; preds = %61, %58
  %65 = load ptr, ptr %4, align 8, !tbaa !22
  %66 = getelementptr inbounds nuw %struct.StackContext, ptr %65, i32 0, i32 9
  %67 = load i32, ptr %66, align 4, !tbaa !41
  %68 = icmp ne i32 %67, 0
  br i1 %68, label %69, label %74

69:                                               ; preds = %64
  %70 = load ptr, ptr %4, align 8, !tbaa !22
  %71 = getelementptr inbounds nuw %struct.StackContext, ptr %70, i32 0, i32 8
  %72 = load i32, ptr %71, align 8, !tbaa !42
  %73 = icmp ne i32 %72, 0
  br label %74

74:                                               ; preds = %69, %64
  %75 = phi i1 [ false, %64 ], [ %73, %69 ]
  %76 = zext i1 %75 to i32
  store i32 %76, ptr %7, align 4, !tbaa !43
  %77 = load ptr, ptr %4, align 8, !tbaa !22
  %78 = getelementptr inbounds nuw %struct.StackContext, ptr %77, i32 0, i32 3
  %79 = load ptr, ptr %78, align 8, !tbaa !44
  %80 = icmp ne ptr %79, null
  br i1 %80, label %81, label %86

81:                                               ; preds = %74
  %82 = load i32, ptr %7, align 4, !tbaa !43
  %83 = icmp ne i32 %82, 0
  br i1 %83, label %84, label %86

84:                                               ; preds = %81
  %85 = load ptr, ptr %3, align 8, !tbaa !4
  call void (ptr, i32, ptr, ...) @av_log(ptr noundef %85, i32 noundef 16, ptr noundef @.str.27)
  store i32 -22, ptr %2, align 4
  store i32 1, ptr %8, align 4
  br label %121

86:                                               ; preds = %81, %74
  %87 = load ptr, ptr %4, align 8, !tbaa !22
  %88 = getelementptr inbounds nuw %struct.StackContext, ptr %87, i32 0, i32 3
  %89 = load ptr, ptr %88, align 8, !tbaa !44
  %90 = icmp ne ptr %89, null
  br i1 %90, label %107, label %91

91:                                               ; preds = %86
  %92 = load i32, ptr %7, align 4, !tbaa !43
  %93 = icmp ne i32 %92, 0
  br i1 %93, label %107, label %94

94:                                               ; preds = %91
  %95 = load ptr, ptr %4, align 8, !tbaa !22
  %96 = getelementptr inbounds nuw %struct.StackContext, ptr %95, i32 0, i32 2
  %97 = load i32, ptr %96, align 8, !tbaa !45
  %98 = icmp eq i32 %97, 2
  br i1 %98, label %99, label %104

99:                                               ; preds = %94
  %100 = load ptr, ptr %4, align 8, !tbaa !22
  %101 = getelementptr inbounds nuw %struct.StackContext, ptr %100, i32 0, i32 9
  store i32 1, ptr %101, align 4, !tbaa !41
  %102 = load ptr, ptr %4, align 8, !tbaa !22
  %103 = getelementptr inbounds nuw %struct.StackContext, ptr %102, i32 0, i32 8
  store i32 2, ptr %103, align 8, !tbaa !42
  store i32 1, ptr %7, align 4, !tbaa !43
  br label %106

104:                                              ; preds = %94
  %105 = load ptr, ptr %3, align 8, !tbaa !4
  call void (ptr, i32, ptr, ...) @av_log(ptr noundef %105, i32 noundef 16, ptr noundef @.str.28)
  store i32 -22, ptr %2, align 4
  store i32 1, ptr %8, align 4
  br label %121

106:                                              ; preds = %99
  br label %107

107:                                              ; preds = %106, %91, %86
  %108 = load i32, ptr %7, align 4, !tbaa !43
  %109 = icmp ne i32 %108, 0
  br i1 %109, label %110, label %120

110:                                              ; preds = %107
  %111 = load ptr, ptr %4, align 8, !tbaa !22
  %112 = getelementptr inbounds nuw %struct.StackContext, ptr %111, i32 0, i32 9
  %113 = load i32, ptr %112, align 4, !tbaa !41
  %114 = load ptr, ptr %4, align 8, !tbaa !22
  %115 = getelementptr inbounds nuw %struct.StackContext, ptr %114, i32 0, i32 8
  %116 = load i32, ptr %115, align 8, !tbaa !42
  %117 = mul nsw i32 %113, %116
  %118 = load ptr, ptr %4, align 8, !tbaa !22
  %119 = getelementptr inbounds nuw %struct.StackContext, ptr %118, i32 0, i32 2
  store i32 %117, ptr %119, align 8, !tbaa !45
  br label %120

120:                                              ; preds = %110, %107
  store i32 0, ptr %8, align 4
  br label %121

121:                                              ; preds = %120, %104, %84
  call void @llvm.lifetime.end.p0(i64 4, ptr %7) #11
  %122 = load i32, ptr %8, align 4
  switch i32 %122, label %180 [
    i32 0, label %123
  ]

123:                                              ; preds = %121
  br label %124

124:                                              ; preds = %123, %34
  %125 = load ptr, ptr %4, align 8, !tbaa !22
  %126 = getelementptr inbounds nuw %struct.StackContext, ptr %125, i32 0, i32 2
  %127 = load i32, ptr %126, align 8, !tbaa !45
  %128 = sext i32 %127 to i64
  %129 = call noalias ptr @av_calloc(i64 noundef %128, i64 noundef 8)
  %130 = load ptr, ptr %4, align 8, !tbaa !22
  %131 = getelementptr inbounds nuw %struct.StackContext, ptr %130, i32 0, i32 16
  store ptr %129, ptr %131, align 8, !tbaa !46
  %132 = load ptr, ptr %4, align 8, !tbaa !22
  %133 = getelementptr inbounds nuw %struct.StackContext, ptr %132, i32 0, i32 16
  %134 = load ptr, ptr %133, align 8, !tbaa !46
  %135 = icmp ne ptr %134, null
  br i1 %135, label %137, label %136

136:                                              ; preds = %124
  store i32 -12, ptr %2, align 4
  store i32 1, ptr %8, align 4
  br label %180

137:                                              ; preds = %124
  %138 = load ptr, ptr %4, align 8, !tbaa !22
  %139 = getelementptr inbounds nuw %struct.StackContext, ptr %138, i32 0, i32 2
  %140 = load i32, ptr %139, align 8, !tbaa !45
  %141 = sext i32 %140 to i64
  %142 = call noalias ptr @av_calloc(i64 noundef %141, i64 noundef 64)
  %143 = load ptr, ptr %4, align 8, !tbaa !22
  %144 = getelementptr inbounds nuw %struct.StackContext, ptr %143, i32 0, i32 15
  store ptr %142, ptr %144, align 8, !tbaa !47
  %145 = load ptr, ptr %4, align 8, !tbaa !22
  %146 = getelementptr inbounds nuw %struct.StackContext, ptr %145, i32 0, i32 15
  %147 = load ptr, ptr %146, align 8, !tbaa !47
  %148 = icmp ne ptr %147, null
  br i1 %148, label %150, label %149

149:                                              ; preds = %137
  store i32 -12, ptr %2, align 4
  store i32 1, ptr %8, align 4
  br label %180

150:                                              ; preds = %137
  store i32 0, ptr %5, align 4, !tbaa !43
  br label %151

151:                                              ; preds = %176, %150
  %152 = load i32, ptr %5, align 4, !tbaa !43
  %153 = load ptr, ptr %4, align 8, !tbaa !22
  %154 = getelementptr inbounds nuw %struct.StackContext, ptr %153, i32 0, i32 2
  %155 = load i32, ptr %154, align 8, !tbaa !45
  %156 = icmp slt i32 %152, %155
  br i1 %156, label %157, label %179

157:                                              ; preds = %151
  call void @llvm.lifetime.start.p0(i64 48, ptr %9) #11
  call void @llvm.memset.p0.i64(ptr align 8 %9, i8 0, i64 48, i1 false)
  %158 = getelementptr inbounds nuw %struct.AVFilterPad, ptr %9, i32 0, i32 1
  store i32 0, ptr %158, align 8, !tbaa !48
  %159 = load i32, ptr %5, align 4, !tbaa !43
  %160 = call ptr (ptr, ...) @av_asprintf(ptr noundef @.str.29, i32 noundef %159)
  %161 = getelementptr inbounds nuw %struct.AVFilterPad, ptr %9, i32 0, i32 0
  store ptr %160, ptr %161, align 8, !tbaa !50
  %162 = getelementptr inbounds nuw %struct.AVFilterPad, ptr %9, i32 0, i32 0
  %163 = load ptr, ptr %162, align 8, !tbaa !50
  %164 = icmp ne ptr %163, null
  br i1 %164, label %166, label %165

165:                                              ; preds = %157
  store i32 -12, ptr %2, align 4
  store i32 1, ptr %8, align 4
  br label %173

166:                                              ; preds = %157
  %167 = load ptr, ptr %3, align 8, !tbaa !4
  %168 = call i32 @ff_append_inpad_free_name(ptr noundef %167, ptr noundef %9)
  store i32 %168, ptr %6, align 4, !tbaa !43
  %169 = icmp slt i32 %168, 0
  br i1 %169, label %170, label %172

170:                                              ; preds = %166
  %171 = load i32, ptr %6, align 4, !tbaa !43
  store i32 %171, ptr %2, align 4
  store i32 1, ptr %8, align 4
  br label %173

172:                                              ; preds = %166
  store i32 0, ptr %8, align 4
  br label %173

173:                                              ; preds = %172, %170, %165
  call void @llvm.lifetime.end.p0(i64 48, ptr %9) #11
  %174 = load i32, ptr %8, align 4
  switch i32 %174, label %180 [
    i32 0, label %175
  ]

175:                                              ; preds = %173
  br label %176

176:                                              ; preds = %175
  %177 = load i32, ptr %5, align 4, !tbaa !43
  %178 = add nsw i32 %177, 1
  store i32 %178, ptr %5, align 4, !tbaa !43
  br label %151, !llvm.loop !51

179:                                              ; preds = %151
  store i32 0, ptr %2, align 4
  store i32 1, ptr %8, align 4
  br label %180

180:                                              ; preds = %179, %173, %149, %136, %121
  call void @llvm.lifetime.end.p0(i64 4, ptr %6) #11
  call void @llvm.lifetime.end.p0(i64 4, ptr %5) #11
  call void @llvm.lifetime.end.p0(i64 8, ptr %4) #11
  %181 = load i32, ptr %2, align 4
  ret i32 %181
}