; Function Attrs: cold nounwind optsize uwtable
define internal range(i32 -2147483648, 1) i32 @init(ptr noundef %0) #0 {
  %2 = alloca %struct.AVFilterPad, align 8
  %3 = getelementptr inbounds nuw i8, ptr %0, i64 72
  %4 = load ptr, ptr %3, align 8, !tbaa !4
  %5 = getelementptr inbounds nuw i8, ptr %0, i64 8
  %6 = load ptr, ptr %5, align 8, !tbaa !20
  %7 = load ptr, ptr %6, align 8, !tbaa !21
  %8 = tail call i32 @strcmp(ptr noundef nonnull dereferenceable(1) %7, ptr noundef nonnull dereferenceable(7) @.str.2) #10
  %.not = icmp eq i32 %8, 0
  br i1 %.not, label %9, label %11

9:                                                ; preds = %1
  %10 = getelementptr inbounds nuw i8, ptr %4, i64 36
  store i32 1, ptr %10, align 4, !tbaa !23
  br label %11

11:                                               ; preds = %9, %1
  %12 = tail call i32 @strcmp(ptr noundef nonnull dereferenceable(1) %7, ptr noundef nonnull dereferenceable(7) @.str) #10
  %.not50 = icmp eq i32 %12, 0
  br i1 %.not50, label %13, label %15

13:                                               ; preds = %11
  %14 = getelementptr inbounds nuw i8, ptr %4, i64 40
  store i32 1, ptr %14, align 8, !tbaa !35
  br label %15

15:                                               ; preds = %13, %11
  %16 = tail call i32 @strcmp(ptr noundef nonnull dereferenceable(1) %7, ptr noundef nonnull dereferenceable(7) @.str.4) #10
  %.not51 = icmp eq i32 %16, 0
  br i1 %.not51, label %17, label %.thread70

17:                                               ; preds = %15
  %18 = getelementptr inbounds nuw i8, ptr %4, i64 64
  %19 = load ptr, ptr %18, align 8, !tbaa !36
  %20 = tail call i32 @strcmp(ptr noundef nonnull dereferenceable(1) %19, ptr noundef nonnull dereferenceable(5) @.str.26) #10
  %.not52 = icmp eq i32 %20, 0
  br i1 %.not52, label %25, label %21

21:                                               ; preds = %17
  %22 = getelementptr inbounds nuw i8, ptr %4, i64 56
  %23 = tail call i32 @av_parse_color(ptr noundef nonnull %22, ptr noundef nonnull %19, i32 noundef -1, ptr noundef nonnull %0) #11
  %24 = icmp sgt i32 %23, -1
  br i1 %24, label %26, label %25

25:                                               ; preds = %21, %17
  br label %26

26:                                               ; preds = %21, %25
  %.sink = phi i32 [ 0, %25 ], [ 1, %21 ]
  %27 = getelementptr inbounds nuw i8, ptr %4, i64 72
  store i32 %.sink, ptr %27, align 8, !tbaa !37
  %28 = getelementptr inbounds nuw i8, ptr %4, i64 52
  %29 = load i32, ptr %28, align 4, !tbaa !38
  %.not53 = icmp eq i32 %29, 0
  br i1 %.not53, label %.thread68, label %30

30:                                               ; preds = %26
  %31 = getelementptr inbounds nuw i8, ptr %4, i64 48
  %32 = load i32, ptr %31, align 8, !tbaa !39
  %33 = icmp ne i32 %32, 0
  %34 = getelementptr inbounds nuw i8, ptr %4, i64 24
  %35 = load ptr, ptr %34, align 8, !tbaa !40
  %36 = icmp ne ptr %35, null
  %or.cond = select i1 %36, i1 %33, i1 false
  br i1 %or.cond, label %37, label %38

37:                                               ; preds = %30
  tail call void (ptr, i32, ptr, ...) @av_log(ptr noundef nonnull %0, i32 noundef 16, ptr noundef nonnull @.str.27) #11
  br label %.critedge59

38:                                               ; preds = %30
  %or.cond4 = select i1 %36, i1 true, i1 %33
  br i1 %or.cond4, label %47, label %41

.thread68:                                        ; preds = %26
  %39 = getelementptr inbounds nuw i8, ptr %4, i64 24
  %40 = load ptr, ptr %39, align 8, !tbaa !40
  %.not72 = icmp eq ptr %40, null
  br i1 %.not72, label %41, label %.thread70

41:                                               ; preds = %.thread68, %38
  %42 = getelementptr inbounds nuw i8, ptr %4, i64 16
  %43 = load i32, ptr %42, align 8, !tbaa !41
  %44 = icmp eq i32 %43, 2
  br i1 %44, label %.critedge, label %46

.critedge:                                        ; preds = %41
  store i32 1, ptr %28, align 4, !tbaa !38
  %45 = getelementptr inbounds nuw i8, ptr %4, i64 48
  store i32 2, ptr %45, align 8, !tbaa !39
  br label %49

46:                                               ; preds = %41
  tail call void (ptr, i32, ptr, ...) @av_log(ptr noundef nonnull %0, i32 noundef 16, ptr noundef nonnull @.str.28) #11
  br label %.critedge59

47:                                               ; preds = %38
  br i1 %33, label %._crit_edge, label %.thread70

._crit_edge:                                      ; preds = %47
  %.phi.trans.insert = getelementptr inbounds nuw i8, ptr %4, i64 48
  %.pre = load i32, ptr %.phi.trans.insert, align 8, !tbaa !39
  %48 = mul nsw i32 %.pre, %29
  br label %49

49:                                               ; preds = %._crit_edge, %.critedge
  %50 = phi i32 [ 2, %.critedge ], [ %48, %._crit_edge ]
  %51 = getelementptr inbounds nuw i8, ptr %4, i64 16
  store i32 %50, ptr %51, align 8, !tbaa !41
  br label %.thread70

.thread70:                                        ; preds = %.thread68, %49, %47, %15
  %52 = getelementptr inbounds nuw i8, ptr %4, i64 16
  %53 = load i32, ptr %52, align 8, !tbaa !41
  %54 = sext i32 %53 to i64
  %55 = tail call noalias ptr @av_calloc(i64 noundef %54, i64 noundef 8) #11
  %56 = getelementptr inbounds nuw i8, ptr %4, i64 288
  store ptr %55, ptr %56, align 8, !tbaa !42
  %.not55 = icmp eq ptr %55, null
  br i1 %.not55, label %.critedge59, label %57

57:                                               ; preds = %.thread70
  %58 = load i32, ptr %52, align 8, !tbaa !41
  %59 = sext i32 %58 to i64
  %60 = tail call noalias ptr @av_calloc(i64 noundef %59, i64 noundef 64) #11
  %61 = getelementptr inbounds nuw i8, ptr %4, i64 280
  store ptr %60, ptr %61, align 8, !tbaa !43
  %.not56 = icmp eq ptr %60, null
  br i1 %.not56, label %.critedge59, label %.preheader

.preheader:                                       ; preds = %57
  %62 = load i32, ptr %52, align 8, !tbaa !41
  %63 = icmp sgt i32 %62, 0
  br i1 %63, label %.lr.ph, label %.critedge59

64:                                               ; preds = %69
  %65 = add nuw nsw i32 %.04864, 1
  %66 = load i32, ptr %52, align 8, !tbaa !41
  %67 = icmp slt i32 %65, %66
  br i1 %67, label %.lr.ph, label %.critedge59, !llvm.loop !44

.lr.ph:                                           ; preds = %.preheader, %64
  %.04864 = phi i32 [ %65, %64 ], [ 0, %.preheader ]
  call void @llvm.lifetime.start.p0(i64 48, ptr nonnull %2) #11
  call void @llvm.memset.p0.i64(ptr noundef nonnull align 8 dereferenceable(48) %2, i8 0, i64 48, i1 false)
  %68 = call ptr (ptr, ...) @av_asprintf(ptr noundef nonnull @.str.29, i32 noundef %.04864) #11
  store ptr %68, ptr %2, align 8, !tbaa !46
  %.not57 = icmp eq ptr %68, null
  br i1 %.not57, label %.thread61, label %69

.thread61:                                        ; preds = %.lr.ph
  call void @llvm.lifetime.end.p0(i64 48, ptr nonnull %2) #11
  br label %.critedge59

69:                                               ; preds = %.lr.ph
  %70 = call i32 @ff_append_inpad_free_name(ptr noundef %0, ptr noundef nonnull %2) #11
  %71 = icmp sgt i32 %70, -1
  call void @llvm.lifetime.end.p0(i64 48, ptr nonnull %2) #11
  br i1 %71, label %64, label %.critedge59

.critedge59:                                      ; preds = %69, %64, %.preheader, %.thread61, %37, %46, %57, %.thread70
  %.2 = phi i32 [ -12, %.thread70 ], [ -12, %57 ], [ -22, %46 ], [ -22, %37 ], [ -12, %.thread61 ], [ 0, %.preheader ], [ %70, %69 ], [ 0, %64 ]
  ret i32 %.2
}